; Function Attrs: mustprogress uwtable
define internal noundef ptr @"_ZZN4pkpy12add_module_cEPNS_2VMEEN3$_58__invokeES1_NS_8ArgsViewE"(ptr noundef nonnull %0, ptr nocapture readonly %1, ptr nocapture readnone %2) #3 align 2 {
  %4 = alloca i64, align 8
  %5 = load ptr, ptr %1, align 8
  %6 = tail call i16 @_ZN4pkpy2VM28_find_type_in_cxx_typeid_mapINS_5VoidPEEENS_4TypeEv(ptr noundef nonnull align 8 dereferenceable(264913) %0)
  %7 = tail call noundef zeroext i1 @_ZN4pkpy2VM10isinstanceEPNS_8PyObjectENS_4TypeE(ptr noundef nonnull align 8 dereferenceable(264913) %0, ptr noundef %5, i16 %6)
  br i1 %7, label %_ZN4pkpy7py_castIRNS_5VoidPEEET_PNS_2VMEPNS_8PyObjectE.exit.i, label %8

8:                                                ; preds = %3
  %9 = ptrtoint ptr %5 to i64
  %10 = and i64 %9, 3
  %11 = icmp eq i64 %10, 2
  %12 = getelementptr inbounds i8, ptr %5, i64 10
  %13 = select i1 %11, ptr @_ZN4pkpy2VM6tp_intE, ptr %12
  %.sroa.0.0.copyload.i.i.i.i.i = load i16, ptr %13, align 2
  tail call void @_ZN4pkpy2VM9TypeErrorENS_4TypeES1_(ptr noundef nonnull align 8 dereferenceable(264913) %0, i16 %6, i16 %.sroa.0.0.copyload.i.i.i.i.i)
  br label %_ZN4pkpy7py_castIRNS_5VoidPEEET_PNS_2VMEPNS_8PyObjectE.exit.i

_ZN4pkpy7py_castIRNS_5VoidPEEET_PNS_2VMEPNS_8PyObjectE.exit.i: ; preds = %8, %3
  %14 = getelementptr inbounds i8, ptr %5, i64 24
  %15 = load ptr, ptr %14, align 8
  %16 = ptrtoint ptr %15 to i64
  call void @llvm.lifetime.start.p0(i64 8, ptr nonnull %4)
  store i64 %16, ptr %4, align 8
  %or.cond.i.i = icmp ult ptr %15, inttoptr (i64 1152921504606846976 to ptr)
  br i1 %or.cond.i.i, label %17, label %21

17:                                               ; preds = %_ZN4pkpy7py_castIRNS_5VoidPEEET_PNS_2VMEPNS_8PyObjectE.exit.i
  %18 = shl nuw nsw i64 %16, 2
  %19 = or disjoint i64 %18, 2
  %20 = inttoptr i64 %19 to ptr
  br label %"_ZZN4pkpy12add_module_cEPNS_2VMEENK3$_5clES1_NS_8ArgsViewE.exit"

21:                                               ; preds = %_ZN4pkpy7py_castIRNS_5VoidPEEET_PNS_2VMEPNS_8PyObjectE.exit.i
  %22 = getelementptr inbounds i8, ptr %0, i64 16
  %23 = call noundef ptr @_ZN4pkpy11ManagedHeap5gcnewIlJRlEEEPNS_8PyObjectENS_4TypeEDpOT0_(ptr noundef nonnull align 8 dereferenceable(84) %22, i16 2, ptr noundef nonnull align 8 dereferenceable(8) %4)
  br label %"_ZZN4pkpy12add_module_cEPNS_2VMEENK3$_5clES1_NS_8ArgsViewE.exit"

"_ZZN4pkpy12add_module_cEPNS_2VMEENK3$_5clES1_NS_8ArgsViewE.exit": ; preds = %17, %21
  %.0.i.i = phi ptr [ %20, %17 ], [ %23, %21 ]
  call void @llvm.lifetime.end.p0(i64 8, ptr nonnull %4)
  ret ptr %.0.i.i
}